target datalayout = "e-m:e-p270:32:32-p271:32:32-p272:64:64-i64:64-i128:128-f80:128-n8:16:32:64-S128"
target triple = "x86_64-pc-linux-gnu"

%struct.SDL_Renderer = type { ptr, ptr, ptr, ptr, ptr, ptr, ptr, ptr, ptr, ptr, ptr, ptr, ptr, ptr, ptr, ptr, ptr, ptr, ptr, ptr, ptr, ptr, ptr, ptr, ptr, ptr, ptr, ptr, ptr, ptr, i32, i8, ptr, i8, i8, i8, i64, i64, ptr, %struct.SDL_RenderViewState, %struct.SDL_FPoint, i32, i32, ptr, ptr, ptr, i32, float, float, float, float, %struct.SDL_FColor, i32, i32, i32, ptr, ptr, ptr, ptr, i32, %struct.SDL_FColor, float, %struct.SDL_Rect, %struct.SDL_Rect, i8, i8, i8, i8, ptr, i64, i64, i8, ptr, ptr, i32, ptr, i8, ptr, ptr }
%struct.SDL_RenderViewState = type { i32, i32, %struct.SDL_Rect, %struct.SDL_Rect, %struct.SDL_Rect, %struct.SDL_Rect, i8, %struct.SDL_FPoint, i32, i32, i32, %struct.SDL_FRect, %struct.SDL_FRect, %struct.SDL_FPoint, %struct.SDL_FPoint, %struct.SDL_FPoint }
%struct.SDL_FRect = type { float, float, float, float }
%struct.SDL_FPoint = type { float, float }
%struct.SDL_FColor = type { float, float, float, float }
%struct.SDL_Rect = type { i32, i32, i32, i32 }
%struct.GPU_RenderData = type { ptr, %struct.GPU_Shaders, %struct.GPU_PipelineCache, %struct.anon, %struct.anon.0, %struct.anon.1, %struct.anon.2, [8 x ptr] }
%struct.GPU_Shaders = type { [3 x ptr], [6 x ptr] }
%struct.GPU_PipelineCache = type { ptr }
%struct.anon = type { ptr, i32, i32, i32 }
%struct.anon.0 = type { i32, i32 }
%struct.anon.1 = type { ptr, ptr, i32 }
%struct.anon.2 = type { ptr, ptr, ptr, %struct.SDL_GPUColorTargetInfo, %struct.SDL_GPUViewport, %struct.SDL_Rect, %struct.SDL_FColor, i8, i8 }
%struct.SDL_GPUColorTargetInfo = type { ptr, i32, i32, %struct.SDL_FColor, i32, i32, ptr, i32, i32, i8, i8, i8, i8 }
%struct.SDL_GPUViewport = type { float, float, float, float, float, float }
%struct.SDL_Texture = type { i32, i32, i32, i32, i32, float, float, i32, i32, i32, %struct.SDL_FColor, %struct.SDL_RenderViewState, ptr, ptr, ptr, ptr, i32, %struct.SDL_Rect, ptr, i32, i32, ptr, ptr, ptr }
%struct.GPU_TextureData = type { ptr, i32, i32, ptr, i32, %struct.SDL_Rect }

; Function Attrs: nounwind uwtable
define internal void @GPU_DestroyTexture(ptr noundef %0, ptr noundef %1) #0 {
  %3 = alloca ptr, align 8
  %4 = alloca ptr, align 8
  %5 = alloca ptr, align 8
  %6 = alloca ptr, align 8
  %7 = alloca i32, align 4
  store ptr %0, ptr %3, align 8
  store ptr %1, ptr %4, align 8
  call void @llvm.lifetime.start.p0(i64 8, ptr %5) #10
  %8 = load ptr, ptr %3, align 8
  %9 = getelementptr inbounds nuw %struct.SDL_Renderer, ptr %8, i32 0, i32 77
  %10 = load ptr, ptr %9, align 8
  store ptr %10, ptr %5, align 8
  call void @llvm.lifetime.start.p0(i64 8, ptr %6) #10
  %11 = load ptr, ptr %4, align 8
  %12 = getelementptr inbounds nuw %struct.SDL_Texture, ptr %11, i32 0, i32 21
  %13 = load ptr, ptr %12, align 8
  store ptr %13, ptr %6, align 8
  %14 = load ptr, ptr %5, align 8
  %15 = getelementptr inbounds nuw %struct.GPU_RenderData, ptr %14, i32 0, i32 6
  %16 = getelementptr inbounds nuw %struct.anon.2, ptr %15, i32 0, i32 1
  %17 = load ptr, ptr %16, align 8
  %18 = load ptr, ptr %4, align 8
  %19 = icmp eq ptr %17, %18
  br i1 %19, label %20, label %24

20:                                               ; preds = %2
  %21 = load ptr, ptr %5, align 8
  %22 = getelementptr inbounds nuw %struct.GPU_RenderData, ptr %21, i32 0, i32 6
  %23 = getelementptr inbounds nuw %struct.anon.2, ptr %22, i32 0, i32 1
  store ptr null, ptr %23, align 8
  br label %24

24:                                               ; preds = %20, %2
  %25 = load ptr, ptr %6, align 8
  %26 = icmp ne ptr %25, null
  br i1 %26, label %28, label %27

27:                                               ; preds = %24
  store i32 1, ptr %7, align 4
  br label %41

28:                                               ; preds = %24
  %29 = load ptr, ptr %5, align 8
  %30 = getelementptr inbounds nuw %struct.GPU_RenderData, ptr %29, i32 0, i32 0
  %31 = load ptr, ptr %30, align 8
  %32 = load ptr, ptr %6, align 8
  %33 = getelementptr inbounds nuw %struct.GPU_TextureData, ptr %32, i32 0, i32 0
  %34 = load ptr, ptr %33, align 8
  call void @SDL_ReleaseGPUTexture_REAL(ptr noundef %31, ptr noundef %34)
  %35 = load ptr, ptr %6, align 8
  %36 = getelementptr inbounds nuw %struct.GPU_TextureData, ptr %35, i32 0, i32 3
  %37 = load ptr, ptr %36, align 8
  call void @SDL_free_REAL(ptr noundef %37)
  %38 = load ptr, ptr %6, align 8
  call void @SDL_free_REAL(ptr noundef %38)
  %39 = load ptr, ptr %4, align 8
  %40 = getelementptr inbounds nuw %struct.SDL_Texture, ptr %39, i32 0, i32 21
  store ptr null, ptr %40, align 8
  store i32 0, ptr %7, align 4
  br label %41

41:                                               ; preds = %28, %27
  call void @llvm.lifetime.end.p0(i64 8, ptr %6) #10
  call void @llvm.lifetime.end.p0(i64 8, ptr %5) #10
  %42 = load i32, ptr %7, align 4
  switch i32 %42, label %44 [
    i32 0, label %43
    i32 1, label %43
  ]

43:                                               ; preds = %41, %41
  ret void

44:                                               ; preds = %41
  unreachable
}