; Function Attrs: nounwind uwtable
define internal void @GPU_DestroyTexture(ptr noundef readonly captures(none) %0, ptr noundef captures(address) %1) #0 {
  %3 = getelementptr inbounds nuw i8, ptr %0, i64 696
  %4 = load ptr, ptr %3, align 8
  %5 = getelementptr inbounds nuw i8, ptr %1, i64 280
  %6 = load ptr, ptr %5, align 8
  %7 = getelementptr inbounds nuw i8, ptr %4, i64 152
  %8 = load ptr, ptr %7, align 8
  %9 = icmp eq ptr %8, %1
  br i1 %9, label %10, label %11

10:                                               ; preds = %2
  store ptr null, ptr %7, align 8
  br label %11

11:                                               ; preds = %10, %2
  %.not = icmp eq ptr %6, null
  br i1 %.not, label %17, label %12

12:                                               ; preds = %11
  %13 = load ptr, ptr %4, align 8
  %14 = load ptr, ptr %6, align 8
  tail call void @SDL_ReleaseGPUTexture_REAL(ptr noundef %13, ptr noundef %14) #11
  %15 = getelementptr inbounds nuw i8, ptr %6, i64 16
  %16 = load ptr, ptr %15, align 8
  tail call void @SDL_free_REAL(ptr noundef %16) #11
  tail call void @SDL_free_REAL(ptr noundef nonnull %6) #11
  store ptr null, ptr %5, align 8
  br label %17

17:                                               ; preds = %11, %12
  ret void
}